; Function Attrs: nounwind uwtable
define range(i32 -2, 1) i32 @IDASpilsSetPreconditioner(ptr noundef %0, ptr noundef %1, ptr noundef %2) local_unnamed_addr #0 {
  %4 = icmp eq ptr %0, null
  br i1 %4, label %5, label %6

5:                                                ; preds = %3
  tail call void (ptr, i32, ptr, ptr, ptr, ...) @IDAProcessError(ptr noundef null, i32 noundef -1, ptr noundef nonnull @.str, ptr noundef nonnull @.str.13, ptr noundef nonnull @.str.2) #5
  br label %14

6:                                                ; preds = %3
  %7 = getelementptr inbounds nuw i8, ptr %0, i64 1632
  %8 = load ptr, ptr %7, align 8, !tbaa !3
  %9 = icmp eq ptr %8, null
  br i1 %9, label %10, label %11

10:                                               ; preds = %6
  tail call void (ptr, i32, ptr, ptr, ptr, ...) @IDAProcessError(ptr noundef nonnull %0, i32 noundef -2, ptr noundef nonnull @.str, ptr noundef nonnull @.str.13, ptr noundef nonnull @.str.3) #5
  br label %14

11:                                               ; preds = %6
  %12 = getelementptr inbounds nuw i8, ptr %8, i64 208
  store ptr %1, ptr %12, align 8, !tbaa !24
  %13 = getelementptr inbounds nuw i8, ptr %8, i64 216
  store ptr %2, ptr %13, align 8, !tbaa !25
  br label %14

14:                                               ; preds = %11, %10, %5
  %.0 = phi i32 [ -1, %5 ], [ -2, %10 ], [ 0, %11 ]
  ret i32 %.0
}